target datalayout = "e-m:e-p270:32:32-p271:32:32-p272:64:64-i64:64-i128:128-f80:128-n8:16:32:64-S128"
target triple = "x86_64-pc-linux-gnu"

%struct._object = type { %union.anon, ptr }
%union.anon = type { i64 }

@.str.12 = private unnamed_addr constant [11 x i8] c"watch_type\00", align 1
@_Py_NoneStruct = external global %struct._object, align 8

; Function Attrs: nounwind uwtable
define internal ptr @_testcapi_watch_type_impl(ptr noundef %0, i32 noundef %1, ptr noundef %2) #0 {
  %4 = alloca ptr, align 8
  %5 = alloca ptr, align 8
  %6 = alloca i32, align 4
  %7 = alloca ptr, align 8
  store ptr %0, ptr %5, align 8, !tbaa !3
  store i32 %1, ptr %6, align 4, !tbaa !10
  store ptr %2, ptr %7, align 8, !tbaa !3
  %8 = load i32, ptr %6, align 4, !tbaa !10
  %9 = load ptr, ptr %7, align 8, !tbaa !3
  %10 = call i32 @PyType_Watch(i32 noundef %8, ptr noundef %9)
  %11 = icmp ne i32 %10, 0
  br i1 %11, label %12, label %13

12:                                               ; preds = %3
  store ptr null, ptr %4, align 8
  br label %14

13:                                               ; preds = %3
  store ptr @_Py_NoneStruct, ptr %4, align 8
  br label %14

14:                                               ; preds = %13, %12
  %15 = load ptr, ptr %4, align 8
  ret ptr %15
}

; Function Attrs: nounwind uwtable
define internal ptr @_testcapi_watch_type(ptr noundef %0, ptr noundef %1, i64 noundef %2) #0 {
  %4 = alloca ptr, align 8
  %5 = alloca ptr, align 8
  %6 = alloca i64, align 8
  %7 = alloca ptr, align 8
  %8 = alloca i32, align 4
  %9 = alloca ptr, align 8
  store ptr %0, ptr %4, align 8, !tbaa !3
  store ptr %1, ptr %5, align 8, !tbaa !14
  store i64 %2, ptr %6, align 8, !tbaa !12
  call void @llvm.lifetime.start.p0(i64 8, ptr %7) #6
  store ptr null, ptr %7, align 8, !tbaa !3
  call void @llvm.lifetime.start.p0(i64 4, ptr %8) #6
  call void @llvm.lifetime.start.p0(i64 8, ptr %9) #6
  %10 = load i64, ptr %6, align 8, !tbaa !12
  %11 = icmp sle i64 2, %10
  br i1 %11, label %12, label %15

12:                                               ; preds = %3
  %13 = load i64, ptr %6, align 8, !tbaa !12
  %14 = icmp sle i64 %13, 2
  br i1 %14, label %20, label %15

15:                                               ; preds = %12, %3
  %16 = load i64, ptr %6, align 8, !tbaa !12
  %17 = call i32 @_PyArg_CheckPositional(ptr noundef @.str.12, i64 noundef %16, i64 noundef 2, i64 noundef 2)
  %18 = icmp ne i32 %17, 0
  br i1 %18, label %20, label %19

19:                                               ; preds = %15
  br label %39

20:                                               ; preds = %15, %12
  %21 = load ptr, ptr %5, align 8, !tbaa !14
  %22 = getelementptr ptr, ptr %21, i64 0
  %23 = load ptr, ptr %22, align 8, !tbaa !3
  %24 = call i32 @PyLong_AsInt(ptr noundef %23)
  store i32 %24, ptr %8, align 4, !tbaa !10
  %25 = load i32, ptr %8, align 4, !tbaa !10
  %26 = icmp eq i32 %25, -1
  br i1 %26, label %27, label %31

27:                                               ; preds = %20
  %28 = call ptr @PyErr_Occurred()
  %29 = icmp ne ptr %28, null
  br i1 %29, label %30, label %31

30:                                               ; preds = %27
  br label %39

31:                                               ; preds = %27, %20
  %32 = load ptr, ptr %5, align 8, !tbaa !14
  %33 = getelementptr ptr, ptr %32, i64 1
  %34 = load ptr, ptr %33, align 8, !tbaa !3
  store ptr %34, ptr %9, align 8, !tbaa !3
  %35 = load ptr, ptr %4, align 8, !tbaa !3
  %36 = load i32, ptr %8, align 4, !tbaa !10
  %37 = load ptr, ptr %9, align 8, !tbaa !3
  %38 = call ptr @_testcapi_watch_type_impl(ptr noundef %35, i32 noundef %36, ptr noundef %37)
  store ptr %38, ptr %7, align 8, !tbaa !3
  br label %39

39:                                               ; preds = %31, %30, %19
  %40 = load ptr, ptr %7, align 8, !tbaa !3
  call void @llvm.lifetime.end.p0(i64 8, ptr %9) #6
  call void @llvm.lifetime.end.p0(i64 4, ptr %8) #6
  call void @llvm.lifetime.end.p0(i64 8, ptr %7) #6
  ret ptr %40
}